; Function Attrs: nounwind uwtable
define dso_local range(i32 -1, 1) i32 @cgroup_p_step_start_oom_mgr(ptr noundef readonly captures(none) %0) local_unnamed_addr #0 {
  %2 = alloca [4096 x i8], align 16
  %3 = getelementptr inbounds nuw i8, ptr %0, i64 904
  %4 = load i8, ptr %3, align 8, !range !12, !noundef !13
  %5 = trunc nuw i8 %4 to i1
  br i1 %5, label %6, label %26

6:                                                ; preds = %1
  call void @llvm.lifetime.start.p0(i64 4096, ptr nonnull %2) #17
  %7 = load ptr, ptr @int_cg_ns, align 8
  %8 = tail call i32 @slurm_bit_test(ptr noundef %7, i64 noundef 2) #17
  %.not6.i = icmp eq i32 %8, 0
  br i1 %.not6.i, label %15, label %9

9:                                                ; preds = %6
  %10 = load ptr, ptr getelementptr inbounds nuw (i8, ptr @int_cg, i64 16), align 16
  %11 = call i32 (ptr, i64, ptr, ...) @snprintf(ptr noundef nonnull dereferenceable(1) %2, i64 noundef 4096, ptr noundef nonnull @.str.96, ptr noundef %10) #17
  %12 = icmp sgt i32 %11, 4095
  br i1 %12, label %15, label %13

13:                                               ; preds = %9
  %14 = call i32 @access(ptr noundef nonnull %2, i32 noundef 0) #17
  %.not7.i = icmp eq i32 %14, 0
  br i1 %.not7.i, label %22, label %15

15:                                               ; preds = %13, %9, %6
  call void @llvm.lifetime.end.p0(i64 4096, ptr nonnull %2) #17
  %16 = load i64, ptr getelementptr inbounds nuw (i8, ptr @slurm_conf, i64 320), align 8
  %17 = and i64 %16, 36028797018963968
  %.not = icmp eq i64 %17, 0
  br i1 %.not, label %26, label %18

18:                                               ; preds = %15
  %19 = tail call i32 @get_log_level() #17
  %20 = icmp sgt i32 %19, 3
  br i1 %20, label %21, label %26

21:                                               ; preds = %18
  tail call void (i32, ptr, ...) @log_var(i32 noundef 4, ptr noundef nonnull @.str.58, ptr noundef nonnull @plugin_type, ptr noundef nonnull @__func__.cgroup_p_step_start_oom_mgr) #17
  br label %26

22:                                               ; preds = %13
  call void @llvm.lifetime.end.p0(i64 4096, ptr nonnull %2) #17
  %23 = tail call i32 @common_cgroup_set_param(ptr noundef nonnull getelementptr inbounds nuw (i8, ptr @int_cg, i64 240), ptr noundef nonnull @.str.59, ptr noundef nonnull @.str.29) #17
  %.not1 = icmp eq i32 %23, 0
  br i1 %.not1, label %26, label %24

24:                                               ; preds = %22
  %25 = tail call i32 (ptr, ...) @error(ptr noundef nonnull @.str.60) #17
  br label %26

26:                                               ; preds = %1, %22, %21, %18, %15, %24
  %.0 = phi i32 [ -1, %24 ], [ 0, %15 ], [ 0, %18 ], [ 0, %21 ], [ 0, %22 ], [ 0, %1 ]
  ret i32 %.0
}